; Function Attrs: mustprogress uwtable
define dso_local noundef ptr @_ZN4base9Histogram14FactoryTimeGetEPKcNS_9TimeDeltaES3_ji(ptr noundef %name, i64 %minimum.coerce, i64 %maximum.coerce, i32 noundef %bucket_count, i32 noundef %flags) local_unnamed_addr #0 align 2 personality ptr @__gxx_personality_v0 {
entry:
  %ref.tmp.i.i = alloca %"class.base::Histogram::Factory", align 8
  %minimum.i = alloca %"class.base::TimeDelta", align 8
  %maximum.i = alloca %"class.base::TimeDelta", align 8
  %ref.tmp = alloca %"class.std::__cxx11::basic_string", align 8
  %ref.tmp2 = alloca %"class.std::allocator", align 1
  call void @_ZNSaIcEC1Ev(ptr noundef nonnull align 1 dereferenceable(1) %ref.tmp2) #19
  %call.i2 = invoke noundef ptr @_ZNSt7__cxx1112basic_stringIcSt11char_traitsIcESaIcEE13_M_local_dataEv(ptr noundef nonnull align 8 dereferenceable(32) %ref.tmp)
          to label %call.i.noexc unwind label %lpad

call.i.noexc:                                     ; preds = %entry
  invoke void @_ZNSt7__cxx1112basic_stringIcSt11char_traitsIcESaIcEE12_Alloc_hiderC1EPcRKS3_(ptr noundef nonnull align 8 dereferenceable(8) %ref.tmp, ptr noundef %call.i2, ptr noundef nonnull align 1 dereferenceable(1) %ref.tmp2)
          to label %.noexc unwind label %lpad

.noexc:                                           ; preds = %call.i.noexc
  %cmp.i = icmp eq ptr %name, null
  br i1 %cmp.i, label %if.then.i, label %if.end.i

if.then.i:                                        ; preds = %.noexc
  invoke void @_ZSt19__throw_logic_errorPKc(ptr noundef nonnull @.str.20) #20
          to label %invoke.cont.i unwind label %lpad.i

invoke.cont.i:                                    ; preds = %if.then.i
  unreachable

lpad.i:                                           ; preds = %if.end.i, %if.then.i
  %0 = landingpad { ptr, i32 }
          cleanup
  call void @_ZNSaIcED2Ev(ptr noundef nonnull align 1 dereferenceable(1) %ref.tmp) #19
  br label %ehcleanup

if.end.i:                                         ; preds = %.noexc
  %call.i.i = call noundef i64 @strlen(ptr noundef nonnull dereferenceable(1) %name) #19
  %add.ptr.i = getelementptr inbounds i8, ptr %name, i64 %call.i.i
  invoke void @_ZNSt7__cxx1112basic_stringIcSt11char_traitsIcESaIcEE12_M_constructIPKcEEvT_S8_St20forward_iterator_tag(ptr noundef nonnull align 8 dereferenceable(32) %ref.tmp, ptr noundef nonnull %name, ptr noundef nonnull %add.ptr.i)
          to label %invoke.cont unwind label %lpad.i

invoke.cont:                                      ; preds = %if.end.i
  call void @llvm.lifetime.start.p0(i64 8, ptr nonnull %minimum.i)
  call void @llvm.lifetime.start.p0(i64 8, ptr nonnull %maximum.i)
  store i64 %minimum.coerce, ptr %minimum.i, align 8
  store i64 %maximum.coerce, ptr %maximum.i, align 8
  %call.i4 = invoke noundef i64 @_ZNK4base9TimeDelta14InMillisecondsEv(ptr noundef nonnull align 8 dereferenceable(8) %minimum.i)
          to label %call.i.noexc3 unwind label %lpad6

call.i.noexc3:                                    ; preds = %invoke.cont
  %call2.i5 = invoke noundef i64 @_ZNK4base9TimeDelta14InMillisecondsEv(ptr noundef nonnull align 8 dereferenceable(8) %maximum.i)
          to label %call2.i.noexc unwind label %lpad6

call2.i.noexc:                                    ; preds = %call.i.noexc3
  %conv.i = trunc i64 %call.i4 to i32
  %conv3.i = trunc i64 %call2.i5 to i32
  call void @llvm.lifetime.start.p0(i64 40, ptr nonnull %ref.tmp.i.i)
  %spec.select.i.i = call i32 @llvm.smax.i32(i32 %conv.i, i32 1)
  %1 = load i32, ptr @_ZN4base13HistogramBase15kSampleType_MAXE, align 4
  %cmp1.not.i.i.i = icmp sgt i32 %1, %conv3.i
  %sub.i.i.i = add nsw i32 %1, -1
  %maximum.addr.0.i.i = select i1 %cmp1.not.i.i.i, i32 %conv3.i, i32 %sub.i.i.i
  %bucket_count.addr.1.i.i = call i32 @llvm.umin.i32(i32 %bucket_count, i32 16383)
  store ptr getelementptr inbounds ({ [5 x ptr] }, ptr @_ZTVN4base9Histogram7FactoryE, i64 0, i32 0, i64 2), ptr %ref.tmp.i.i, align 8
  %name_.i.i.i.i = getelementptr inbounds i8, ptr %ref.tmp.i.i, i64 8
  store ptr %ref.tmp, ptr %name_.i.i.i.i, align 8
  %histogram_type_.i.i.i.i = getelementptr inbounds i8, ptr %ref.tmp.i.i, i64 16
  store i32 0, ptr %histogram_type_.i.i.i.i, align 8
  %minimum_.i.i.i.i = getelementptr inbounds i8, ptr %ref.tmp.i.i, i64 20
  store i32 %spec.select.i.i, ptr %minimum_.i.i.i.i, align 4
  %maximum_.i.i.i.i = getelementptr inbounds i8, ptr %ref.tmp.i.i, i64 24
  store i32 %maximum.addr.0.i.i, ptr %maximum_.i.i.i.i, align 8
  %bucket_count_.i.i.i.i = getelementptr inbounds i8, ptr %ref.tmp.i.i, i64 28
  store i32 %bucket_count.addr.1.i.i, ptr %bucket_count_.i.i.i.i, align 4
  %flags_.i.i.i.i = getelementptr inbounds i8, ptr %ref.tmp.i.i, i64 32
  store i32 %flags, ptr %flags_.i.i.i.i, align 8
  %call1.i.i6 = invoke noundef ptr @_ZN4base9Histogram7Factory5BuildEv(ptr noundef nonnull align 8 dereferenceable(36) %ref.tmp.i.i)
          to label %invoke.cont7 unwind label %lpad6

invoke.cont7:                                     ; preds = %call2.i.noexc
  call void @llvm.lifetime.end.p0(i64 40, ptr nonnull %ref.tmp.i.i)
  call void @llvm.lifetime.end.p0(i64 8, ptr nonnull %minimum.i)
  call void @llvm.lifetime.end.p0(i64 8, ptr nonnull %maximum.i)
  call void @_ZNSt7__cxx1112basic_stringIcSt11char_traitsIcESaIcEED1Ev(ptr noundef nonnull align 8 dereferenceable(32) %ref.tmp) #19
  call void @_ZNSaIcED1Ev(ptr noundef nonnull align 1 dereferenceable(1) %ref.tmp2) #19
  ret ptr %call1.i.i6

lpad:                                             ; preds = %call.i.noexc, %entry
  %2 = landingpad { ptr, i32 }
          cleanup
  br label %ehcleanup

lpad6:                                            ; preds = %call2.i.noexc, %call.i.noexc3, %invoke.cont
  %3 = landingpad { ptr, i32 }
          cleanup
  call void @_ZNSt7__cxx1112basic_stringIcSt11char_traitsIcESaIcEED1Ev(ptr noundef nonnull align 8 dereferenceable(32) %ref.tmp) #19
  br label %ehcleanup

ehcleanup:                                        ; preds = %lpad, %lpad.i, %lpad6
  %.pn = phi { ptr, i32 } [ %3, %lpad6 ], [ %2, %lpad ], [ %0, %lpad.i ]
  call void @_ZNSaIcED1Ev(ptr noundef nonnull align 1 dereferenceable(1) %ref.tmp2) #19
  resume { ptr, i32 } %.pn
}